target datalayout = "e-m:e-p270:32:32-p271:32:32-p272:64:64-i64:64-i128:128-f80:128-n8:16:32:64-S128"
target triple = "x86_64-pc-linux-gnu"

%struct.Qureg = type { i32, i32, i32, i64, i64, i32, i32, %struct.ComplexArray, %struct.ComplexArray, %struct.ComplexArray, ptr, ptr, ptr, ptr, ptr, ptr }
%struct.ComplexArray = type { ptr, ptr }

@__func__.calcExpecPauliSum = private unnamed_addr constant [18 x i8] c"calcExpecPauliSum\00", align 1

; Function Attrs: nounwind uwtable
define double @calcExpecPauliSum(ptr noundef byval(%struct.Qureg) align 8 %0, ptr noundef %1, ptr noundef %2, i32 noundef %3, ptr noundef byval(%struct.Qureg) align 8 %4) #0 {
  %6 = alloca ptr, align 8
  %7 = alloca ptr, align 8
  %8 = alloca i32, align 4
  store ptr %1, ptr %6, align 8, !tbaa !29
  store ptr %2, ptr %7, align 8, !tbaa !23
  store i32 %3, ptr %8, align 4, !tbaa !4
  %9 = load i32, ptr %8, align 4, !tbaa !4
  call void @validateNumPauliSumTerms(i32 noundef %9, ptr noundef @__func__.calcExpecPauliSum)
  %10 = load ptr, ptr %6, align 8, !tbaa !29
  %11 = load i32, ptr %8, align 4, !tbaa !4
  %12 = getelementptr inbounds nuw %struct.Qureg, ptr %0, i32 0, i32 1
  %13 = load i32, ptr %12, align 4, !tbaa !18
  %14 = mul nsw i32 %11, %13
  call void @validatePauliCodes(ptr noundef %10, i32 noundef %14, ptr noundef @__func__.calcExpecPauliSum)
  call void @validateMatchingQuregTypes(ptr noundef byval(%struct.Qureg) align 8 %0, ptr noundef byval(%struct.Qureg) align 8 %4, ptr noundef @__func__.calcExpecPauliSum)
  call void @validateMatchingQuregDims(ptr noundef byval(%struct.Qureg) align 8 %0, ptr noundef byval(%struct.Qureg) align 8 %4, ptr noundef @__func__.calcExpecPauliSum)
  %15 = load ptr, ptr %6, align 8, !tbaa !29
  %16 = load ptr, ptr %7, align 8, !tbaa !23
  %17 = load i32, ptr %8, align 4, !tbaa !4
  %18 = call double @statevec_calcExpecPauliSum(ptr noundef byval(%struct.Qureg) align 8 %0, ptr noundef %15, ptr noundef %16, i32 noundef %17, ptr noundef byval(%struct.Qureg) align 8 %4)
  ret double %18
}