; Function Attrs: nounwind uwtable
define double @calcExpecPauliSum(ptr noundef readonly byval(%struct.Qureg) align 8 captures(none) %0, ptr noundef %1, ptr noundef %2, i32 noundef %3, ptr noundef readonly byval(%struct.Qureg) align 8 captures(none) %4) local_unnamed_addr #0 {
  tail call void @validateNumPauliSumTerms(i32 noundef %3, ptr noundef nonnull @__func__.calcExpecPauliSum) #17
  %6 = getelementptr inbounds nuw i8, ptr %0, i64 4
  %7 = load i32, ptr %6, align 4, !tbaa !17
  %8 = mul nsw i32 %7, %3
  tail call void @validatePauliCodes(ptr noundef %1, i32 noundef %8, ptr noundef nonnull @__func__.calcExpecPauliSum) #17
  tail call void @validateMatchingQuregTypes(ptr noundef nonnull byval(%struct.Qureg) align 8 %0, ptr noundef nonnull byval(%struct.Qureg) align 8 %4, ptr noundef nonnull @__func__.calcExpecPauliSum) #17
  tail call void @validateMatchingQuregDims(ptr noundef nonnull byval(%struct.Qureg) align 8 %0, ptr noundef nonnull byval(%struct.Qureg) align 8 %4, ptr noundef nonnull @__func__.calcExpecPauliSum) #17
  %9 = tail call double @statevec_calcExpecPauliSum(ptr noundef nonnull byval(%struct.Qureg) align 8 %0, ptr noundef %1, ptr noundef %2, i32 noundef %3, ptr noundef nonnull byval(%struct.Qureg) align 8 %4) #17
  ret double %9
}